; Function Attrs: mustprogress uwtable
define noundef i32 @zmq_poller_wait_all(ptr noundef %0, ptr noundef %1, i32 noundef %2, i64 noundef %3) local_unnamed_addr #1 {
  %.not.i = icmp eq ptr %0, null
  br i1 %.not.i, label %_ZL12check_pollerPv.exit.thread, label %5

5:                                                ; preds = %4
  %6 = tail call noundef zeroext i1 @_ZNK3zmq15socket_poller_t9check_tagEv(ptr noundef nonnull align 8 dereferenceable(56) %0)
  br i1 %6, label %_ZL12check_pollerPv.exit, label %_ZL12check_pollerPv.exit.thread

_ZL12check_pollerPv.exit.thread:                  ; preds = %4, %5
  %7 = tail call ptr @__errno_location() #20
  store i32 14, ptr %7, align 4, !tbaa !3
  br label %16

_ZL12check_pollerPv.exit:                         ; preds = %5
  %.not = icmp eq ptr %1, null
  br i1 %.not, label %8, label %10

8:                                                ; preds = %_ZL12check_pollerPv.exit
  %9 = tail call ptr @__errno_location() #20
  store i32 14, ptr %9, align 4, !tbaa !3
  br label %16

10:                                               ; preds = %_ZL12check_pollerPv.exit
  %11 = icmp slt i32 %2, 0
  br i1 %11, label %12, label %14

12:                                               ; preds = %10
  %13 = tail call ptr @__errno_location() #20
  store i32 22, ptr %13, align 4, !tbaa !3
  br label %16

14:                                               ; preds = %10
  %15 = tail call noundef i32 @_ZN3zmq15socket_poller_t4waitEP18zmq_poller_event_til(ptr noundef nonnull align 8 dereferenceable(56) %0, ptr noundef nonnull %1, i32 noundef %2, i64 noundef %3)
  br label %16

16:                                               ; preds = %_ZL12check_pollerPv.exit.thread, %14, %12, %8
  %.0 = phi i32 [ -1, %12 ], [ %15, %14 ], [ -1, %8 ], [ -1, %_ZL12check_pollerPv.exit.thread ]
  ret i32 %.0
}